target datalayout = "e-m:e-p270:32:32-p271:32:32-p272:64:64-i64:64-i128:128-f80:128-n8:16:32:64-S128"
target triple = "x86_64-pc-linux-gnu"

%"struct.OpenSubdiv::v3_6_0::Far::PatchTableFactory::Options" = type { i32, i32, ptr }
%"class.OpenSubdiv::v3_6_0::Vtr::ConstArray" = type <{ ptr, i32, [4 x i8] }>
%"class.OpenSubdiv::v3_6_0::Far::PatchTableBuilder" = type { ptr, %"struct.OpenSubdiv::v3_6_0::Far::PatchTableFactory::Options", %"class.OpenSubdiv::v3_6_0::Vtr::ConstArray", i8, ptr, ptr, %"class.OpenSubdiv::v3_6_0::Far::PtexIndices", %"class.std::vector.0", i32, i32, %"class.std::vector", %"class.std::vector.5", %"class.std::vector", i8, ptr }
%"class.OpenSubdiv::v3_6_0::Far::PtexIndices" = type { %"class.std::vector" }
%"class.std::vector.0" = type { %"struct.std::_Vector_base.1" }
%"struct.std::_Vector_base.1" = type { %"struct.std::_Vector_base<OpenSubdiv::v3_6_0::Far::PatchTableBuilder::PatchTuple, std::allocator<OpenSubdiv::v3_6_0::Far::PatchTableBuilder::PatchTuple>>::_Vector_impl" }
%"struct.std::_Vector_base<OpenSubdiv::v3_6_0::Far::PatchTableBuilder::PatchTuple, std::allocator<OpenSubdiv::v3_6_0::Far::PatchTableBuilder::PatchTuple>>::_Vector_impl" = type { %"struct.std::_Vector_base<OpenSubdiv::v3_6_0::Far::PatchTableBuilder::PatchTuple, std::allocator<OpenSubdiv::v3_6_0::Far::PatchTableBuilder::PatchTuple>>::_Vector_impl_data" }
%"struct.std::_Vector_base<OpenSubdiv::v3_6_0::Far::PatchTableBuilder::PatchTuple, std::allocator<OpenSubdiv::v3_6_0::Far::PatchTableBuilder::PatchTuple>>::_Vector_impl_data" = type { ptr, ptr, ptr }
%"class.std::vector.5" = type { %"struct.std::_Vector_base.6" }
%"struct.std::_Vector_base.6" = type { %"struct.std::_Vector_base<std::vector<int>, std::allocator<std::vector<int>>>::_Vector_impl" }
%"struct.std::_Vector_base<std::vector<int>, std::allocator<std::vector<int>>>::_Vector_impl" = type { %"struct.std::_Vector_base<std::vector<int>, std::allocator<std::vector<int>>>::_Vector_impl_data" }
%"struct.std::_Vector_base<std::vector<int>, std::allocator<std::vector<int>>>::_Vector_impl_data" = type { ptr, ptr, ptr }
%"class.std::vector" = type { %"struct.std::_Vector_base" }
%"struct.std::_Vector_base" = type { %"struct.std::_Vector_base<int, std::allocator<int>>::_Vector_impl" }
%"struct.std::_Vector_base<int, std::allocator<int>>::_Vector_impl" = type { %"struct.std::_Vector_base<int, std::allocator<int>>::_Vector_impl_data" }
%"struct.std::_Vector_base<int, std::allocator<int>>::_Vector_impl_data" = type { ptr, ptr, ptr }

@_ZN10OpenSubdiv6v3_6_03Far17PatchTableBuilderD1Ev = unnamed_addr alias void (ptr), ptr @_ZN10OpenSubdiv6v3_6_03Far17PatchTableBuilderD2Ev

; Function Attrs: mustprogress nounwind uwtable
define linkonce_odr noundef ptr @_ZNK10OpenSubdiv6v3_6_03Far17PatchTableBuilder13GetPatchTableEv(ptr noundef nonnull align 8 dereferenceable(208) %0) #6 comdat align 2 {
  %2 = alloca ptr, align 8
  store ptr %0, ptr %2, align 8
  %3 = load ptr, ptr %2, align 8
  %4 = getelementptr inbounds nuw %"class.OpenSubdiv::v3_6_0::Far::PatchTableBuilder", ptr %3, i32 0, i32 4
  %5 = load ptr, ptr %4, align 8
  ret ptr %5
}

; Function Attrs: mustprogress uwtable
define void @_ZN10OpenSubdiv6v3_6_03Far17PatchTableBuilder12BuildPatchesEv(ptr noundef nonnull align 8 dereferenceable(208) %0) #4 align 2 {
  %2 = alloca ptr, align 8
  store ptr %0, ptr %2, align 8
  %3 = load ptr, ptr %2, align 8
  call void @_ZN10OpenSubdiv6v3_6_03Far17PatchTableBuilder15identifyPatchesEv(ptr noundef nonnull align 8 dereferenceable(208) %3)
  call void @_ZN10OpenSubdiv6v3_6_03Far17PatchTableBuilder15populatePatchesEv(ptr noundef nonnull align 8 dereferenceable(208) %3)
  ret void
}

; Function Attrs: mustprogress nounwind uwtable
define linkonce_odr noundef zeroext i1 @_ZNK10OpenSubdiv6v3_6_03Far17PatchTableBuilder24UniformPolygonsSpecifiedEv(ptr noundef nonnull align 8 dereferenceable(208) %0) #6 comdat align 2 {
  %2 = alloca ptr, align 8
  store ptr %0, ptr %2, align 8
  %3 = load ptr, ptr %2, align 8
  %4 = getelementptr inbounds nuw %"class.OpenSubdiv::v3_6_0::Far::PatchTableBuilder", ptr %3, i32 0, i32 3
  %5 = load i8, ptr %4, align 8
  %6 = lshr i8 %5, 7
  %7 = zext i8 %6 to i32
  %8 = icmp ne i32 %7, 0
  ret i1 %8
}

; Function Attrs: mustprogress uwtable
define noundef ptr @_ZN10OpenSubdiv6v3_6_03Far17PatchTableFactory6CreateERKNS1_15TopologyRefinerENS2_7OptionsENS0_3Vtr10ConstArrayIiEE(ptr noundef nonnull align 8 dereferenceable(120) %0, i64 %1, ptr %2, ptr %3, i32 %4) #4 align 2 personality ptr @__gxx_personality_v0 {
  %6 = alloca %"struct.OpenSubdiv::v3_6_0::Far::PatchTableFactory::Options", align 8
  %7 = alloca %"class.OpenSubdiv::v3_6_0::Vtr::ConstArray", align 8
  %8 = alloca ptr, align 8
  %9 = alloca %"class.OpenSubdiv::v3_6_0::Far::PatchTableBuilder", align 8
  %10 = alloca %"struct.OpenSubdiv::v3_6_0::Far::PatchTableFactory::Options", align 8
  %11 = alloca %"class.OpenSubdiv::v3_6_0::Vtr::ConstArray", align 8
  %12 = alloca ptr, align 8
  %13 = alloca i32, align 4
  %14 = getelementptr inbounds nuw { i64, ptr }, ptr %6, i32 0, i32 0
  store i64 %1, ptr %14, align 8
  %15 = getelementptr inbounds nuw { i64, ptr }, ptr %6, i32 0, i32 1
  store ptr %2, ptr %15, align 8
  %16 = getelementptr inbounds nuw { ptr, i32 }, ptr %7, i32 0, i32 0
  store ptr %3, ptr %16, align 8
  %17 = getelementptr inbounds nuw { ptr, i32 }, ptr %7, i32 0, i32 1
  store i32 %4, ptr %17, align 8
  store ptr %0, ptr %8, align 8
  %18 = load ptr, ptr %8, align 8
  call void @llvm.memcpy.p0.p0.i64(ptr align 8 %10, ptr align 8 %6, i64 16, i1 false)
  call void @llvm.memcpy.p0.p0.i64(ptr align 8 %11, ptr align 8 %7, i64 16, i1 false)
  %19 = getelementptr inbounds nuw { i64, ptr }, ptr %10, i32 0, i32 0
  %20 = load i64, ptr %19, align 8
  %21 = getelementptr inbounds nuw { i64, ptr }, ptr %10, i32 0, i32 1
  %22 = load ptr, ptr %21, align 8
  %23 = getelementptr inbounds nuw { ptr, i32 }, ptr %11, i32 0, i32 0
  %24 = load ptr, ptr %23, align 8
  %25 = getelementptr inbounds nuw { ptr, i32 }, ptr %11, i32 0, i32 1
  %26 = load i32, ptr %25, align 8
  call void @_ZN10OpenSubdiv6v3_6_03Far17PatchTableBuilderC1ERKNS1_15TopologyRefinerENS1_17PatchTableFactory7OptionsENS0_3Vtr10ConstArrayIiEE(ptr noundef nonnull align 8 dereferenceable(208) %9, ptr noundef nonnull align 8 dereferenceable(120) %18, i64 %20, ptr %22, ptr %24, i32 %26)
  %27 = invoke noundef zeroext i1 @_ZNK10OpenSubdiv6v3_6_03Far17PatchTableBuilder24UniformPolygonsSpecifiedEv(ptr noundef nonnull align 8 dereferenceable(208) %9)
          to label %28 unwind label %31

28:                                               ; preds = %5
  br i1 %27, label %29, label %35

29:                                               ; preds = %28
  invoke void @_ZN10OpenSubdiv6v3_6_03Far17PatchTableBuilder20BuildUniformPolygonsEv(ptr noundef nonnull align 8 dereferenceable(208) %9)
          to label %30 unwind label %31

30:                                               ; preds = %29
  br label %37

31:                                               ; preds = %37, %35, %29, %5
  %32 = landingpad { ptr, i32 }
          cleanup
  %33 = extractvalue { ptr, i32 } %32, 0
  store ptr %33, ptr %12, align 8
  %34 = extractvalue { ptr, i32 } %32, 1
  store i32 %34, ptr %13, align 4
  call void @_ZN10OpenSubdiv6v3_6_03Far17PatchTableBuilderD1Ev(ptr noundef nonnull align 8 dereferenceable(208) %9) #3
  br label %40

35:                                               ; preds = %28
  invoke void @_ZN10OpenSubdiv6v3_6_03Far17PatchTableBuilder12BuildPatchesEv(ptr noundef nonnull align 8 dereferenceable(208) %9)
          to label %36 unwind label %31

36:                                               ; preds = %35
  br label %37

37:                                               ; preds = %36, %30
  %38 = invoke noundef ptr @_ZNK10OpenSubdiv6v3_6_03Far17PatchTableBuilder13GetPatchTableEv(ptr noundef nonnull align 8 dereferenceable(208) %9)
          to label %39 unwind label %31

39:                                               ; preds = %37
  call void @_ZN10OpenSubdiv6v3_6_03Far17PatchTableBuilderD1Ev(ptr noundef nonnull align 8 dereferenceable(208) %9) #3
  ret ptr %38

40:                                               ; preds = %31
  %41 = load ptr, ptr %12, align 8
  %42 = load i32, ptr %13, align 4
  %43 = insertvalue { ptr, i32 } poison, ptr %41, 0
  %44 = insertvalue { ptr, i32 } %43, i32 %42, 1
  resume { ptr, i32 } %44
}