; Function Attrs: mustprogress uwtable
define noundef ptr @_ZN10OpenSubdiv6v3_6_03Far17PatchTableFactory6CreateERKNS1_15TopologyRefinerENS2_7OptionsENS0_3Vtr10ConstArrayIiEE(ptr noundef nonnull align 8 dereferenceable(120) %0, i64 %1, ptr %2, ptr %3, i32 %4) local_unnamed_addr #3 align 2 personality ptr @__gxx_personality_v0 {
  %6 = alloca %"class.OpenSubdiv::v3_6_0::Far::PatchTableBuilder", align 8
  call void @_ZN10OpenSubdiv6v3_6_03Far17PatchTableBuilderC1ERKNS1_15TopologyRefinerENS1_17PatchTableFactory7OptionsENS0_3Vtr10ConstArrayIiEE(ptr noundef nonnull align 8 dereferenceable(208) %6, ptr noundef nonnull align 8 dereferenceable(120) %0, i64 %1, ptr %2, ptr %3, i32 %4)
  %7 = getelementptr inbounds nuw i8, ptr %6, i64 40
  %8 = load i8, ptr %7, align 8
  %9 = icmp slt i8 %8, 0
  br i1 %9, label %10, label %13

10:                                               ; preds = %5
  invoke void @_ZN10OpenSubdiv6v3_6_03Far17PatchTableBuilder20BuildUniformPolygonsEv(ptr noundef nonnull align 8 dereferenceable(208) %6)
          to label %_ZN10OpenSubdiv6v3_6_03Far17PatchTableBuilder12BuildPatchesEv.exit unwind label %11

11:                                               ; preds = %.noexc, %13, %10
  %12 = landingpad { ptr, i32 }
          cleanup
  call void @_ZN10OpenSubdiv6v3_6_03Far17PatchTableBuilderD1Ev(ptr noundef nonnull align 8 dereferenceable(208) %6) #18
  resume { ptr, i32 } %12

13:                                               ; preds = %5
  invoke void @_ZN10OpenSubdiv6v3_6_03Far17PatchTableBuilder15identifyPatchesEv(ptr noundef nonnull align 8 dereferenceable(208) %6)
          to label %.noexc unwind label %11

.noexc:                                           ; preds = %13
  invoke void @_ZN10OpenSubdiv6v3_6_03Far17PatchTableBuilder15populatePatchesEv(ptr noundef nonnull align 8 dereferenceable(208) %6)
          to label %_ZN10OpenSubdiv6v3_6_03Far17PatchTableBuilder12BuildPatchesEv.exit unwind label %11

_ZN10OpenSubdiv6v3_6_03Far17PatchTableBuilder12BuildPatchesEv.exit: ; preds = %.noexc, %10
  %14 = getelementptr inbounds nuw i8, ptr %6, i64 48
  %15 = load ptr, ptr %14, align 8
  call void @_ZN10OpenSubdiv6v3_6_03Far17PatchTableBuilderD1Ev(ptr noundef nonnull align 8 dereferenceable(208) %6) #18
  ret ptr %15
}